target datalayout = "e-m:e-p270:32:32-p271:32:32-p272:64:64-i64:64-i128:128-f80:128-n8:16:32:64-S128"
target triple = "x86_64-pc-linux-gnu"

%struct.AVFormatContext = type { ptr, ptr, ptr, ptr, ptr, i32, i32, ptr, i32, ptr, i32, ptr, ptr, i64, i64, i64, i32, i32, i32, i64, i64, ptr, i32, i32, ptr, i32, i32, i32, i32, ptr, i64, i32, i32, %struct.AVIOInterruptCB, i32, i32, i32, i32, i64, i32, i32, i32, i32, i32, i32, i32, i32, i32, i32, i32, i32, i64, i32, i32, i32, i32, i32, ptr, ptr, ptr, ptr, i32, ptr, ptr, ptr, ptr, i32, ptr, ptr, i64, ptr, ptr, ptr, i64 }
%struct.AVIOInterruptCB = type { ptr, ptr }

; Function Attrs: nounwind uwtable
define internal i32 @moflex_read_header(ptr noundef %0) #0 {
  %2 = alloca i32, align 4
  %3 = alloca ptr, align 8
  %4 = alloca i32, align 4
  %5 = alloca i32, align 4
  store ptr %0, ptr %3, align 8, !tbaa !17
  call void @llvm.lifetime.start.p0(i64 4, ptr %4) #8
  %6 = load ptr, ptr %3, align 8, !tbaa !17
  %7 = call i32 @moflex_read_sync(ptr noundef %6)
  store i32 %7, ptr %4, align 4, !tbaa !9
  %8 = load i32, ptr %4, align 4, !tbaa !9
  %9 = icmp slt i32 %8, 0
  br i1 %9, label %10, label %12

10:                                               ; preds = %1
  %11 = load i32, ptr %4, align 4, !tbaa !9
  store i32 %11, ptr %2, align 4
  store i32 1, ptr %5, align 4
  br label %21

12:                                               ; preds = %1
  %13 = load ptr, ptr %3, align 8, !tbaa !17
  %14 = getelementptr inbounds nuw %struct.AVFormatContext, ptr %13, i32 0, i32 5
  %15 = load i32, ptr %14, align 8, !tbaa !19
  %16 = or i32 %15, 1
  store i32 %16, ptr %14, align 8, !tbaa !19
  %17 = load ptr, ptr %3, align 8, !tbaa !17
  %18 = getelementptr inbounds nuw %struct.AVFormatContext, ptr %17, i32 0, i32 4
  %19 = load ptr, ptr %18, align 8, !tbaa !34
  %20 = call i64 @avio_seek(ptr noundef %19, i64 noundef 0, i32 noundef 0)
  store i32 0, ptr %2, align 4
  store i32 1, ptr %5, align 4
  br label %21

21:                                               ; preds = %12, %10
  call void @llvm.lifetime.end.p0(i64 4, ptr %4) #8
  %22 = load i32, ptr %2, align 4
  ret i32 %22
}