; Function Attrs: nounwind uwtable
define internal range(i32 -1163346256, 1) i32 @moflex_read_header(ptr noundef %0) #0 {
  %2 = tail call fastcc i32 @moflex_read_sync(ptr noundef %0)
  %3 = icmp slt i32 %2, 0
  br i1 %3, label %11, label %4

4:                                                ; preds = %1
  %5 = getelementptr inbounds nuw i8, ptr %0, i64 40
  %6 = load i32, ptr %5, align 8, !tbaa !13
  %7 = or i32 %6, 1
  store i32 %7, ptr %5, align 8, !tbaa !13
  %8 = getelementptr inbounds nuw i8, ptr %0, i64 32
  %9 = load ptr, ptr %8, align 8, !tbaa !28
  %10 = tail call i64 @avio_seek(ptr noundef %9, i64 noundef 0, i32 noundef 0) #5
  br label %11

11:                                               ; preds = %1, %4
  %.0 = phi i32 [ 0, %4 ], [ %2, %1 ]
  ret i32 %.0
}